Certificate:
    Data:
        Version: 3 (0x2)
        Serial Number:
            ba:58:4e:df:51:56:2f:07
        Signature Algorithm: sha1WithRSAEncryption
        Issuer: C=IE, ST=Dublin, O=test, OU=test, CN=Divo/emailAddress=divoapple@gmail.com
        Validity
            Not Before: Apr  2 19:10:22 2011 GMT
            Not After : Apr  1 19:10:22 2014 GMT
        Subject: C=IE, ST=Dublin, O=test, OU=test, CN=Divo/emailAddress=divoapple@gmail.com
        Subject Public Key Info:
            Public Key Algorithm: rsaEncryption
            RSA Public Key: (1024 bit)
                Modulus (1024 bit):
                    00:db:bd:d1:80:b4:bc:28:4f:7d:fc:46:ac:ef:d5:
                    cf:3d:30:d3:25:75:ae:7b:01:a7:06:83:6f:b7:67:
                    28:3f:21:cf:b6:28:3d:78:4c:e3:dc:fc:73:a3:9b:
                    36:46:c4:06:1e:e1:b5:04:1b:b2:c7:0c:30:c4:81:
                    ff:43:40:9d:63:b7:0c:38:ae:48:ca:b5:35:ed:4a:
                    12:59:7f:8c:5b:ee:89:46:14:c9:c4:cb:ed:b3:92:
                    e9:3e:78:18:68:6f:4e:06:6e:1a:3a:58:f0:f7:71:
                    d5:5b:ec:c2:45:a3:15:40:29:95:21:76:5e:45:f7:
                    ea:5d:50:06:c4:08:f1:f0:1f
                Exponent: 65537 (0x10001)
        X509v3 extensions:
            X509v3 Subject Key Identifier: 
                DB:A0:83:4B:F9:FC:59:3E:FD:98:12:3E:69:93:BB:F0:45:AE:62:E3
            X509v3 Authority Key Identifier: 
                keyid:DB:A0:83:4B:F9:FC:59:3E:FD:98:12:3E:69:93:BB:F0:45:AE:62:E3
                DirName:/C=IE/ST=Dublin/O=test/OU=test/CN=Divo/emailAddress=divoapple@gmail.com
                serial:BA:58:4E:DF:51:56:2F:07

            X509v3 Basic Constraints: 
                CA:TRUE
    Signature Algorithm: sha1WithRSAEncryption
        84:38:70:aa:a6:d8:21:bf:c4:bb:61:58:79:56:72:e8:dc:b0:
        2b:4f:93:76:1c:69:4e:fe:56:39:bc:b9:31:cc:f3:7f:3d:42:
        17:da:40:d7:d2:56:18:f2:f4:7e:39:3d:91:f2:74:91:29:8b:
        4c:cb:76:e1:78:0d:a4:33:4b:f9:a6:56:8c:fe:71:c0:b2:8c:
        70:fb:bc:7f:03:e4:97:3b:27:fa:68:df:45:68:8e:04:e6:c8:
        10:89:1d:b5:8b:9f:83:d8:b7:d0:01:9c:ac:da:90:7b:c3:06:
        8d:7e:98:5b:e0:67:f2:72:04:c1:5d:d2:4e:7c:df:38:52:3a:
        ca:37
-----BEGIN CERTIFICATE-----
MIIDMTCCApqgAwIBAgIJALpYTt9RVi8HMA0GCSqGSIb3DQEBBQUAMG8xCzAJBgNV
BAYTAklFMQ8wDQYDVQQIEwZEdWJsaW4xDTALBgNVBAoTBHRlc3QxDTALBgNVBAsT
BHRlc3QxDTALBgNVBAMTBERpdm8xIjAgBgkqhkiG9w0BCQEWE2Rpdm9hcHBsZUBn
bWFpbC5jb20wHhcNMTEwNDAyMTkxMDIyWhcNMTQwNDAxMTkxMDIyWjBvMQswCQYD
VQQGEwJJRTEPMA0GA1UECBMGRHVibGluMQ0wCwYDVQQKEwR0ZXN0MQ0wCwYDVQQL
EwR0ZXN0MQ0wCwYDVQQDEwREaXZvMSIwIAYJKoZIhvcNAQkBFhNkaXZvYXBwbGVA
Z21haWwuY29tMIGfMA0GCSqGSIb3DQEBAQUAA4GNADCBiQKBgQDbvdGAtLwoT338
Rqzv1c89MNMlda57AacGg2+3Zyg/Ic+2KD14TOPc/HOjmzZGxAYe4bUEG7LHDDDE
gf9DQJ1jtww4rkjKtTXtShJZf4xb7olGFMnEy+2zkuk+eBhob04Gbho6WPD3cdVb
7MJFoxVAKZUhdl5F9+pdUAbECPHwHwIDAQABo4HUMIHRMB0GA1UdDgQWBBTboINL
+fxZPv2YEj5pk7vwRa5i4zCBoQYDVR0jBIGZMIGWgBTboINL+fxZPv2YEj5pk7vw
Ra5i46FzpHEwbzELMAkGA1UEBhMCSUUxDzANBgNVBAgTBkR1YmxpbjENMAsGA1UE
ChMEdGVzdDENMAsGA1UECxMEdGVzdDENMAsGA1UEAxMERGl2bzEiMCAGCSqGSIb3
DQEJARYTZGl2b2FwcGxlQGdtYWlsLmNvbYIJALpYTt9RVi8HMAwGA1UdEwQFMAMB
Af8wDQYJKoZIhvcNAQEFBQADgYEAhDhwqqbYIb/Eu2FYeVZy6NywK0+TdhxpTv5W
Oby5Mczzfz1CF9pA19JWGPL0fjk9kfJ0kSmLTMt24XgNpDNL+aZWjP5xwLKMcPu8
fwPklzsn+mjfRWiOBObIEIkdtYufg9i30AGcrNqQe8MGjX6YW+Bn8nIEwV3STnzf
OFI6yjc=
-----END CERTIFICATE-----
