Certificate:
    Data:
        Version: 3 (0x2)
        Serial Number:
            ad:c8:b7:06:73:94:11:79
        Signature Algorithm: sha1WithRSAEncryption
        Issuer: C=IE, ST=Dublin, O=test, CN=Steven/emailAddress=divodivenson@gmail.com
        Validity
            Not Before: Apr  5 13:14:42 2011 GMT
            Not After : Apr  4 13:14:42 2014 GMT
        Subject: C=IE, ST=Dublin, O=test, CN=Steven/emailAddress=divodivenson@gmail.com
        Subject Public Key Info:
            Public Key Algorithm: rsaEncryption
            RSA Public Key: (1024 bit)
                Modulus (1024 bit):
                    00:b4:1b:06:76:3e:ac:44:c9:a3:b7:59:5f:a9:5d:
                    a2:62:d2:90:97:ed:20:bc:8a:41:a7:06:4e:96:4b:
                    f2:b0:fc:72:81:00:62:e7:a2:ae:bb:27:1c:bc:79:
                    00:09:ec:2e:24:50:62:f7:e8:5e:d7:41:10:94:65:
                    90:bc:3e:8b:a4:16:e0:c4:e2:18:cf:77:2e:74:89:
                    fb:91:99:69:e6:32:b8:51:04:5b:5c:a7:b2:a6:51:
                    54:8a:d6:1e:0a:39:69:0e:29:50:b2:44:fe:cd:a0:
                    f6:6d:ad:9b:a8:2e:e6:e4:2c:4e:f5:09:77:a5:78:
                    ae:e7:ed:1a:48:cb:50:76:07
                Exponent: 65537 (0x10001)
        X509v3 extensions:
            X509v3 Subject Key Identifier: 
                1F:95:24:6A:B6:95:9E:DA:BB:21:AB:B1:0E:D4:E9:31:8E:79:57:8F
            X509v3 Authority Key Identifier: 
                keyid:1F:95:24:6A:B6:95:9E:DA:BB:21:AB:B1:0E:D4:E9:31:8E:79:57:8F
                DirName:/C=IE/ST=Dublin/O=test/CN=Steven/emailAddress=divodivenson@gmail.com
                serial:AD:C8:B7:06:73:94:11:79

            X509v3 Basic Constraints: 
                CA:TRUE
    Signature Algorithm: sha1WithRSAEncryption
        7c:ce:36:80:33:a5:c4:9f:41:8e:d1:f3:9b:fb:6d:aa:ce:4d:
        57:61:43:77:c9:63:7b:e1:4a:97:06:f5:94:a2:c1:10:ac:7d:
        fa:6f:20:76:07:b8:9a:db:3a:c8:b7:34:45:6d:02:3f:de:47:
        31:01:e2:35:7e:61:2a:0a:0e:a8:d7:b8:75:98:11:17:cf:ac:
        5f:96:a7:e2:90:55:63:d4:4f:ab:21:e8:0d:5c:86:e1:4c:e9:
        23:51:1f:37:8a:8c:a4:0f:61:ef:0f:d2:e3:d1:7d:a0:46:d7:
        8c:69:88:08:34:b9:5f:ca:43:8b:22:4f:af:51:d3:bf:58:46:
        8d:7a
-----BEGIN CERTIFICATE-----
MIIDEzCCAnygAwIBAgIJAK3ItwZzlBF5MA0GCSqGSIb3DQEBBQUAMGUxCzAJBgNV
BAYTAklFMQ8wDQYDVQQIEwZEdWJsaW4xDTALBgNVBAoTBHRlc3QxDzANBgNVBAMT
BlN0ZXZlbjElMCMGCSqGSIb3DQEJARYWZGl2b2RpdmVuc29uQGdtYWlsLmNvbTAe
Fw0xMTA0MDUxMzE0NDJaFw0xNDA0MDQxMzE0NDJaMGUxCzAJBgNVBAYTAklFMQ8w
DQYDVQQIEwZEdWJsaW4xDTALBgNVBAoTBHRlc3QxDzANBgNVBAMTBlN0ZXZlbjEl
MCMGCSqGSIb3DQEJARYWZGl2b2RpdmVuc29uQGdtYWlsLmNvbTCBnzANBgkqhkiG
9w0BAQEFAAOBjQAwgYkCgYEAtBsGdj6sRMmjt1lfqV2iYtKQl+0gvIpBpwZOlkvy
sPxygQBi56KuuyccvHkACewuJFBi9+he10EQlGWQvD6LpBbgxOIYz3cudIn7kZlp
5jK4UQRbXKeyplFUitYeCjlpDilQskT+zaD2ba2bqC7m5CxO9Ql3pXiu5+0aSMtQ
dgcCAwEAAaOByjCBxzAdBgNVHQ4EFgQUH5UkaraVntq7IauxDtTpMY55V48wgZcG
A1UdIwSBjzCBjIAUH5UkaraVntq7IauxDtTpMY55V4+haaRnMGUxCzAJBgNVBAYT
AklFMQ8wDQYDVQQIEwZEdWJsaW4xDTALBgNVBAoTBHRlc3QxDzANBgNVBAMTBlN0
ZXZlbjElMCMGCSqGSIb3DQEJARYWZGl2b2RpdmVuc29uQGdtYWlsLmNvbYIJAK3I
twZzlBF5MAwGA1UdEwQFMAMBAf8wDQYJKoZIhvcNAQEFBQADgYEAfM42gDOlxJ9B
jtHzm/ttqs5NV2FDd8lje+FKlwb1lKLBEKx9+m8gdge4mts6yLc0RW0CP95HMQHi
NX5hKgoOqNe4dZgRF8+sX5an4pBVY9RPqyHoDVyG4UzpI1EfN4qMpA9h7w/S49F9
oEbXjGmICDS5X8pDiyJPr1HTv1hGjXo=
-----END CERTIFICATE-----
