(dp0
S'test'
p1
I1
sS'tcd.ie/'
p2
(lp3
(S'HTTP/1.1 302 Found\r\nDate: Wed, 09 Mar 2011 11:43:22 GMT\r\nServer: Apache/2.2.10\r\nLocation: http://www.tcd.ie/\r\nContent-Length: 265\r\nContent-Type: text/html; charset=iso-8859-1\r\n\r\n<!DOCTYPE HTML PUBLIC "-//IETF//DTD HTML 2.0//EN">\n<html><head>\n<title>302 Found</title>\n</head><body>\n<h1>Found</h1>\n<p>The document has moved <a href="http://www.tcd.ie/">here</a>.</p>\n<hr>\n<address>Apache/2.2.10 Server at tcd.ie Port 80</address>\n</body></html>\n'
p4
S'c'
p5
tp6
as.